(i__main__
user
p0
(dp1
S'username'
p2
S'tevin'
p3
sS'status'
p4
S'thug life'
p5
sS'name'
p6
S'Tevin'
p7
sS'received'
p8
(lp9
(lp10
S'ben'
p11
aS'"\x8bSFG\x87;\x87;\x87;\x87;\x87;\x87;\x87;\x87;\x87;\x94'
p12
aI1
aI1
aa(lp13
S'ben'
p14
aS'N\x8eC\x99\xf8\x93?\x99M\x87A\x8b\xf8\x8fMFJ\x98C\x9c;\x9a?FS\x95I\x95I\x95I\x95'
p15
aI1
aI2
aa(lp16
S'tino'
p17
aS'B\x8f\xf8\x93;\x94\xf8\x9d;\x87;\x87;\x87;\x87;\x87;\x87;'
p18
aI1
aI2
aa(lp19
S'BALU'
p20
aS'>\x8f\xf8\x87M\x8aI'
p21
aI1
aI1
aa(lp22
S'BALU'
p23
aS'B\x8bF\x92IF\x0bX\r'
p24
aI1
aI2
aasS'mobile'
p25
S'0507551871'
p26
sS'psent'
p27
(lp28
(lp29
S'tino'
p30
aS'N\x8eC\x99\xf8\x8fMF;FJ\x98C\x9c;\x9a?FG\x8bM\x99;\x8d?'
p31
aI0
aI2
aI2
aa(lp32
S'asd'
p33
aS'S\x95I\x95IFG\x87HFQ\x87M\x99O\x96'
p34
aI0
aI2
aI4
aa(lp35
S'BALU'
p36
aS'S\x87;\x87\xf8\x8aM\x87D\x8aM\x87'
p37
aI0
aI2
aI5
aasS'preceived'
p38
(lp39
(lp40
S'vj'
p41
aS'N\x8bM\x9a\xf8\x96L\x8fP\x87N\x8b'
p42
aI1
aI2
aI1
aa(lp43
g14
aS'N\x8eC\x99\xf8\x93?\x99M\x87A\x8b\xf8\x8fMFJ\x98C\x9c;\x9a?FS\x95I\x95I\x95I\x95'
p44
aI1
aI2
aI2
aa(lp45
g17
aS'B\x8f\xf8\x93;\x94\xf8\x9d;\x87;\x87;\x87;\x87;\x87;\x87;'
p46
aI1
aI2
aI3
aa(lp47
g23
aS'B\x8bF\x92IF\x0bX\r'
p48
aI1
aI2
aI5
aasS'dob'
p49
S'16-11-1997'
p50
sS'security_ques'
p51
S'Wbb'
p52
sS'scode'
p53
S'0324'
p54
sS'password'
p55
S'tevin123'
p56
sS'friends'
p57
(lp58
S'tino'
p59
aS'asd'
p60
aS'BALU'
p61
asS'email'
p62
S'tevinjose97@gmail.com'
p63
sS'sent'
p64
(lp65
(lp66
S'tino'
p67
aS'B\x8bSFG\x87HFF\x95H\x8d\xf8\x9aC\x93?'
p68
aI0
aI1
aa(lp69
g30
aS'N\x8eC\x99\xf8\x8fMF;FJ\x98C\x9c;\x9a?FG\x8bM\x99;\x8d?'
p70
aI0
aI2
aa(lp71
S'asd'
p72
aS'B\x8bF\x95I\x95I\x95I\x95I\x95I'
p73
aI0
aI1
aa(lp74
g33
aS'S\x95I\x95IFG\x87HFQ\x87M\x99O\x96'
p75
aI0
aI2
aa(lp76
g36
aS'S\x87;\x87\xf8\x8aM\x87D\x8aM\x87'
p77
aI0
aI2
aasS'security_ans'
p78
g3
sb.(i__main__
user
p0
(dp1
S'username'
p2
S'tino'
p3
sS'status'
p4
S'Feeling Excited'
p5
sS'name'
p6
S'Tino'
p7
sS'received'
p8
(lp9
(lp10
S'kuttan'
p11
aS'ehv#jd^d^d^dk#tdpvrs'
p12
aI1
aI1
aa(lp13
S'kuttan'
p14
aS'qkfv\x1dpbvpddh\x1dlp#mufy^wb#vd^d^d^d^|'
p15
aI1
aI2
aa(lp16
S'asd'
p17
aS'ehv/\x1dklz\x1ddoh\x1d|lx'
p18
aI1
aI1
aa(lp19
S'asd'
p20
aS'ehv#jdk#tdpvpxm'
p21
aI0
aI2
aasS'mobile'
p22
S'0501234567'
p23
sS'psent'
p24
(lp25
(lp26
S'tevin'
p27
aS'B\x8f\xf8\x93;\x94\xf8\x9d;\x87;\x87;\x87;\x87;\x87;\x87;'
p28
aI0
aI2
aI1
aasS'preceived'
p29
(lp30
(lp31
g14
aS'qkfv\x1dpbvpddh\x1dlp#mufy^wb#vd^d^d^d^|'
p32
aI1
aI2
aI2
aa(lp33
g20
aS'ehv#jdk#tdpvpxm'
p34
aI0
aI2
aI4
aasS'dob'
p35
S'11-11-1997'
p36
sS'security_ques'
p37
S'Wbb'
p38
sS'scode'
p39
S'0416'
p40
sS'password'
p41
S'tino123'
p42
sS'friends'
p43
(lp44
S'tevin'
p45
aS'shaun'
p46
aS'asd'
p47
asS'email'
p48
S'wa@gmail.com'
p49
sS'sent'
p50
(lp51
(lp52
g27
aS'B\x8f\xf8\x93;\x94\xf8\x9d;\x87;\x87;\x87;\x87;\x87;\x87;'
p53
aI0
aI2
aasS'security_ans'
p54
g3
sb.(i__main__
user
p0
(dp1
S'username'
p2
S'shaun'
p3
sS'status'
p4
S'Happy'
p5
sS'name'
p6
S'Shaun'
p7
sS'received'
p8
(lp9
sS'dob'
p10
S'09-09-1997'
p11
sS'psent'
p12
(lp13
sS'preceived'
p14
(lp15
sS'mobile'
p16
S'0123456789'
p17
sS'security_ques'
p18
S'What is the name of your first pet?'
p19
sS'scode'
p20
S'0123'
p21
sS'password'
p22
S'123'
p23
sS'friends'
p24
(lp25
S'tino'
p26
asS'email'
p27
S'asd@gmail.com'
p28
sS'sent'
p29
(lp30
sS'security_ans'
p31
S'Goldy'
p32
sb.(i__main__
user
p0
(dp1
S'username'
p2
S'asd'
p3
sS'status'
p4
S'Happy'
p5
sS'name'
p6
S'Asd'
p7
sS'received'
p8
(lp9
(lp10
S'tevin'
p11
aS'B\x8bF\x95I\x95I\x95I\x95I\x95I'
p12
aI1
aI1
aa(lp13
S'tevin'
p14
aS'S\x95I\x95IFG\x87HFQ\x87M\x99O\x96'
p15
aI1
aI2
aasS'dob'
p16
S'02-02-2012'
p17
sS'psent'
p18
(lp19
(lp20
S'tino'
p21
aS'ehv#jdk#tdpvpxm'
p22
aI0
aI2
aI2
aasS'preceived'
p23
(lp24
(lp25
g14
aS'S\x95I\x95IFG\x87HFQ\x87M\x99O\x96'
p26
aI1
aI2
aI2
aasS'mobile'
p27
S'0123456789'
p28
sS'security_ques'
p29
S'What is the name of your first pet?'
p30
sS'scode'
p31
S'0123'
p32
sS'password'
p33
S'123'
p34
sS'friends'
p35
(lp36
S'tino'
p37
aS'tevin'
p38
asS'email'
p39
S'asd@gmail.com'
p40
sS'sent'
p41
(lp42
(lp43
S'tino'
p44
aS'ehv/\x1dklz\x1ddoh\x1d|lx'
p45
aI0
aI1
aa(lp46
g21
aS'ehv#jdk#tdpvpxm'
p47
aI0
aI2
aasS'security_ans'
p48
S'Goldy'
p49
sb.(i__main__
user
p0
(dp1
S'username'
p2
S'BALU'
p3
sS'status'
p4
S'yoyo boy'
p5
sS'name'
p6
S'Vinayak S '
p7
sS'received'
p8
(lp9
(lp10
S'tevin'
p11
aS'S\x87;\x87\xf8\x8aM\x87D\x8aM\x87'
p12
aI1
aI2
aasS'dob'
p13
S'07-08-1997'
p14
sS'psent'
p15
(lp16
(lp17
S'tevin'
p18
aS'B\x8bF\x92IF\x0bX\r'
p19
aI0
aI2
aI2
aasS'preceived'
p20
(lp21
(lp22
g11
aS'S\x87;\x87\xf8\x8aM\x87D\x8aM\x87'
p23
aI1
aI2
aI1
aasS'mobile'
p24
S'9496619102'
p25
sS'security_ques'
p26
S'What is the name of your first pet?'
p27
sS'scode'
p28
S'0483'
p29
sS'password'
p30
S'gamesuru'
p31
sS'friends'
p32
(lp33
S'tevin'
p34
asS'email'
p35
S'sdds@_________.com'
p36
sS'sent'
p37
(lp38
(lp39
S'tevin'
p40
aS'>\x8f\xf8\x87M\x8aI'
p41
aI0
aI1
aa(lp42
g18
aS'B\x8bF\x92IF\x0bX\r'
p43
aI0
aI2
aasS'security_ans'
p44
S'sexy bitch'
p45
sb.(i__main__
user
p0
(dp1
S'username'
p2
S'yak123'
p3
sS'status'
p4
S'Happier'
p5
sS'name'
p6
S'Yajoob'
p7
sS'received'
p8
(lp9
sS'dob'
p10
S'11-11-0199'
p11
sS'psent'
p12
(lp13
sS'preceived'
p14
(lp15
sS'mobile'
p16
S'0123456789'
p17
sS'security_ques'
p18
S'What is the last name of the teacher who gave you your first failing grade?'
p19
sS'scode'
p20
S'0123'
p21
sS'password'
p22
S'asdfgh'
p23
sS'friends'
p24
(lp25
sS'email'
p26
S'ashd@gmail.com'
p27
sS'sent'
p28
(lp29
sS'security_ans'
p30
S'awd'
p31
sb.
